target datalayout = "e-m:e-p270:32:32-p271:32:32-p272:64:64-i64:64-i128:128-f80:128-n8:16:32:64-S128"
target triple = "x86_64-unknown-linux-gnu"

%"class.base::BucketRanges" = type <{ %"class.std::vector", i32, [4 x i8] }>
%"class.std::vector" = type { %"struct.std::_Vector_base" }
%"struct.std::_Vector_base" = type { %"struct.std::_Vector_base<int, std::allocator<int>>::_Vector_impl" }
%"struct.std::_Vector_base<int, std::allocator<int>>::_Vector_impl" = type { %"struct.std::_Vector_base<int, std::allocator<int>>::_Vector_impl_data" }
%"struct.std::_Vector_base<int, std::allocator<int>>::_Vector_impl_data" = type { ptr, ptr, ptr }

; Function Attrs: mustprogress nounwind uwtable
define linkonce_odr dso_local noundef i64 @_ZNKSt6vectorIiSaIiEE4sizeEv(ptr noundef nonnull align 8 dereferenceable(24) %this) #2 comdat align 2 {
entry:
  %this.addr = alloca ptr, align 8
  store ptr %this, ptr %this.addr, align 8
  %this1 = load ptr, ptr %this.addr, align 8
  %_M_impl = getelementptr inbounds %"struct.std::_Vector_base", ptr %this1, i32 0, i32 0
  %_M_finish = getelementptr inbounds %"struct.std::_Vector_base<int, std::allocator<int>>::_Vector_impl_data", ptr %_M_impl, i32 0, i32 1
  %0 = load ptr, ptr %_M_finish, align 8
  %_M_impl2 = getelementptr inbounds %"struct.std::_Vector_base", ptr %this1, i32 0, i32 0
  %_M_start = getelementptr inbounds %"struct.std::_Vector_base<int, std::allocator<int>>::_Vector_impl_data", ptr %_M_impl2, i32 0, i32 0
  %1 = load ptr, ptr %_M_start, align 8
  %sub.ptr.lhs.cast = ptrtoint ptr %0 to i64
  %sub.ptr.rhs.cast = ptrtoint ptr %1 to i64
  %sub.ptr.sub = sub i64 %sub.ptr.lhs.cast, %sub.ptr.rhs.cast
  %sub.ptr.div = sdiv exact i64 %sub.ptr.sub, 4
  ret i64 %sub.ptr.div
}

; Function Attrs: mustprogress nounwind uwtable
define linkonce_odr dso_local noundef nonnull align 4 dereferenceable(4) ptr @_ZNKSt6vectorIiSaIiEEixEm(ptr noundef nonnull align 8 dereferenceable(24) %this, i64 noundef %__n) #2 comdat align 2 {
entry:
  %this.addr = alloca ptr, align 8
  %__n.addr = alloca i64, align 8
  store ptr %this, ptr %this.addr, align 8
  store i64 %__n, ptr %__n.addr, align 8
  %this1 = load ptr, ptr %this.addr, align 8
  %_M_impl = getelementptr inbounds %"struct.std::_Vector_base", ptr %this1, i32 0, i32 0
  %_M_start = getelementptr inbounds %"struct.std::_Vector_base<int, std::allocator<int>>::_Vector_impl_data", ptr %_M_impl, i32 0, i32 0
  %0 = load ptr, ptr %_M_start, align 8
  %1 = load i64, ptr %__n.addr, align 8
  %add.ptr = getelementptr inbounds i32, ptr %0, i64 %1
  ret ptr %add.ptr
}

; Function Attrs: mustprogress nounwind uwtable
define linkonce_odr dso_local noundef i64 @_ZNK4base12BucketRanges12bucket_countEv(ptr noundef nonnull align 8 dereferenceable(28) %this) #2 comdat align 2 {
entry:
  %this.addr = alloca ptr, align 8
  store ptr %this, ptr %this.addr, align 8
  %this1 = load ptr, ptr %this.addr, align 8
  %ranges_ = getelementptr inbounds %"class.base::BucketRanges", ptr %this1, i32 0, i32 0
  %call = call noundef i64 @_ZNKSt6vectorIiSaIiEE4sizeEv(ptr noundef nonnull align 8 dereferenceable(24) %ranges_) #12
  %sub = sub i64 %call, 1
  ret i64 %sub
}

; Function Attrs: mustprogress nounwind uwtable
define linkonce_odr dso_local noundef i32 @_ZNK4base12BucketRanges5rangeEm(ptr noundef nonnull align 8 dereferenceable(28) %this, i64 noundef %i) #2 comdat align 2 {
entry:
  %this.addr = alloca ptr, align 8
  %i.addr = alloca i64, align 8
  store ptr %this, ptr %this.addr, align 8
  store i64 %i, ptr %i.addr, align 8
  %this1 = load ptr, ptr %this.addr, align 8
  %ranges_ = getelementptr inbounds %"class.base::BucketRanges", ptr %this1, i32 0, i32 0
  %0 = load i64, ptr %i.addr, align 8
  %call = call noundef nonnull align 4 dereferenceable(4) ptr @_ZNKSt6vectorIiSaIiEEixEm(ptr noundef nonnull align 8 dereferenceable(24) %ranges_, i64 noundef %0) #12
  %1 = load i32, ptr %call, align 4
  ret i32 %1
}

; Function Attrs: mustprogress uwtable
define dso_local void @_ZN4base15CustomHistogramC2ERKNSt7__cxx1112basic_stringIcSt11char_traitsIcESaIcEEEPKNS_12BucketRangesEPiSC_jPNS_16HistogramSamples8MetadataESF_(ptr noundef nonnull align 8 dereferenceable(81) %this, ptr noundef nonnull align 8 dereferenceable(32) %name, ptr noundef %ranges, ptr noundef %counts, ptr noundef %logged_counts, i32 noundef %counts_size, ptr noundef %meta, ptr noundef %logged_meta) unnamed_addr #0 align 2 {
entry:
  %this.addr = alloca ptr, align 8
  %name.addr = alloca ptr, align 8
  %ranges.addr = alloca ptr, align 8
  %counts.addr = alloca ptr, align 8
  %logged_counts.addr = alloca ptr, align 8
  %counts_size.addr = alloca i32, align 4
  %meta.addr = alloca ptr, align 8
  %logged_meta.addr = alloca ptr, align 8
  store ptr %this, ptr %this.addr, align 8
  store ptr %name, ptr %name.addr, align 8
  store ptr %ranges, ptr %ranges.addr, align 8
  store ptr %counts, ptr %counts.addr, align 8
  store ptr %logged_counts, ptr %logged_counts.addr, align 8
  store i32 %counts_size, ptr %counts_size.addr, align 4
  store ptr %meta, ptr %meta.addr, align 8
  store ptr %logged_meta, ptr %logged_meta.addr, align 8
  %this1 = load ptr, ptr %this.addr, align 8
  %0 = load ptr, ptr %name.addr, align 8
  %1 = load ptr, ptr %ranges.addr, align 8
  %call = call noundef i32 @_ZNK4base12BucketRanges5rangeEm(ptr noundef nonnull align 8 dereferenceable(28) %1, i64 noundef 1)
  %2 = load ptr, ptr %ranges.addr, align 8
  %3 = load ptr, ptr %ranges.addr, align 8
  %call2 = call noundef i64 @_ZNK4base12BucketRanges12bucket_countEv(ptr noundef nonnull align 8 dereferenceable(28) %3)
  %sub = sub i64 %call2, 1
  %call3 = call noundef i32 @_ZNK4base12BucketRanges5rangeEm(ptr noundef nonnull align 8 dereferenceable(28) %2, i64 noundef %sub)
  %4 = load ptr, ptr %ranges.addr, align 8
  %5 = load ptr, ptr %counts.addr, align 8
  %6 = load ptr, ptr %logged_counts.addr, align 8
  %7 = load i32, ptr %counts_size.addr, align 4
  %8 = load ptr, ptr %meta.addr, align 8
  %9 = load ptr, ptr %logged_meta.addr, align 8
  call void @_ZN4base9HistogramC2ERKNSt7__cxx1112basic_stringIcSt11char_traitsIcESaIcEEEiiPKNS_12BucketRangesEPiSC_jPNS_16HistogramSamples8MetadataESF_(ptr noundef nonnull align 8 dereferenceable(81) %this1, ptr noundef nonnull align 8 dereferenceable(32) %0, i32 noundef %call, i32 noundef %call3, ptr noundef %4, ptr noundef %5, ptr noundef %6, i32 noundef %7, ptr noundef %8, ptr noundef %9)
  store ptr getelementptr inbounds ({ [25 x ptr] }, ptr @_ZTVN4base15CustomHistogramE, i32 0, i32 0, i32 2), ptr %this1, align 8
  ret void
}